target datalayout = "e-m:e-p270:32:32-p271:32:32-p272:64:64-i64:64-i128:128-f80:128-n8:16:32:64-S128"
target triple = "x86_64-pc-linux-gnu"

%struct.libpq_source = type { %struct.rewind_source, ptr, i32, [1000 x %struct.fetch_range_request], %struct.StringInfoData, %struct.StringInfoData, %struct.StringInfoData }
%struct.rewind_source = type { ptr, ptr, ptr, ptr, ptr, ptr, ptr }
%struct.fetch_range_request = type { ptr, i64, i64 }
%struct.StringInfoData = type { ptr, i32, i32, i32 }

; Function Attrs: nounwind uwtable
define internal void @libpq_queue_fetch_range(ptr noundef %0, ptr noundef %1, i64 noundef %2, i64 noundef %3) #0 {
  %5 = alloca ptr, align 8
  %6 = alloca ptr, align 8
  %7 = alloca i64, align 8
  %8 = alloca i64, align 8
  %9 = alloca ptr, align 8
  %10 = alloca ptr, align 8
  %11 = alloca i64, align 8
  %12 = alloca i32, align 4
  store ptr %0, ptr %5, align 8
  store ptr %1, ptr %6, align 8
  store i64 %2, ptr %7, align 8
  store i64 %3, ptr %8, align 8
  call void @llvm.lifetime.start.p0(i64 8, ptr %9) #10
  %13 = load ptr, ptr %5, align 8
  store ptr %13, ptr %9, align 8
  %14 = load ptr, ptr %9, align 8
  %15 = getelementptr inbounds nuw %struct.libpq_source, ptr %14, i32 0, i32 2
  %16 = load i32, ptr %15, align 8
  %17 = icmp sgt i32 %16, 0
  br i1 %17, label %18, label %75

18:                                               ; preds = %4
  call void @llvm.lifetime.start.p0(i64 8, ptr %10) #10
  %19 = load ptr, ptr %9, align 8
  %20 = getelementptr inbounds nuw %struct.libpq_source, ptr %19, i32 0, i32 3
  %21 = load ptr, ptr %9, align 8
  %22 = getelementptr inbounds nuw %struct.libpq_source, ptr %21, i32 0, i32 2
  %23 = load i32, ptr %22, align 8
  %24 = sub i32 %23, 1
  %25 = sext i32 %24 to i64
  %26 = getelementptr inbounds [1000 x %struct.fetch_range_request], ptr %20, i64 0, i64 %25
  store ptr %26, ptr %10, align 8
  %27 = load ptr, ptr %10, align 8
  %28 = getelementptr inbounds nuw %struct.fetch_range_request, ptr %27, i32 0, i32 1
  %29 = load i64, ptr %28, align 8
  %30 = load ptr, ptr %10, align 8
  %31 = getelementptr inbounds nuw %struct.fetch_range_request, ptr %30, i32 0, i32 2
  %32 = load i64, ptr %31, align 8
  %33 = add i64 %29, %32
  %34 = load i64, ptr %7, align 8
  %35 = icmp eq i64 %33, %34
  br i1 %35, label %36, label %74

36:                                               ; preds = %18
  %37 = load ptr, ptr %10, align 8
  %38 = getelementptr inbounds nuw %struct.fetch_range_request, ptr %37, i32 0, i32 2
  %39 = load i64, ptr %38, align 8
  %40 = icmp ult i64 %39, 1048576
  br i1 %40, label %41, label %74

41:                                               ; preds = %36
  %42 = load ptr, ptr %10, align 8
  %43 = getelementptr inbounds nuw %struct.fetch_range_request, ptr %42, i32 0, i32 0
  %44 = load ptr, ptr %43, align 8
  %45 = load ptr, ptr %6, align 8
  %46 = icmp eq ptr %44, %45
  br i1 %46, label %47, label %74

47:                                               ; preds = %41
  call void @llvm.lifetime.start.p0(i64 8, ptr %11) #10
  %48 = load i64, ptr %8, align 8
  %49 = load ptr, ptr %10, align 8
  %50 = getelementptr inbounds nuw %struct.fetch_range_request, ptr %49, i32 0, i32 2
  %51 = load i64, ptr %50, align 8
  %52 = sub i64 1048576, %51
  %53 = icmp ult i64 %48, %52
  br i1 %53, label %54, label %56

54:                                               ; preds = %47
  %55 = load i64, ptr %8, align 8
  br label %61

56:                                               ; preds = %47
  %57 = load ptr, ptr %10, align 8
  %58 = getelementptr inbounds nuw %struct.fetch_range_request, ptr %57, i32 0, i32 2
  %59 = load i64, ptr %58, align 8
  %60 = sub i64 1048576, %59
  br label %61

61:                                               ; preds = %56, %54
  %62 = phi i64 [ %55, %54 ], [ %60, %56 ]
  store i64 %62, ptr %11, align 8
  %63 = load i64, ptr %11, align 8
  %64 = load ptr, ptr %10, align 8
  %65 = getelementptr inbounds nuw %struct.fetch_range_request, ptr %64, i32 0, i32 2
  %66 = load i64, ptr %65, align 8
  %67 = add i64 %66, %63
  store i64 %67, ptr %65, align 8
  %68 = load i64, ptr %11, align 8
  %69 = load i64, ptr %7, align 8
  %70 = add i64 %69, %68
  store i64 %70, ptr %7, align 8
  %71 = load i64, ptr %11, align 8
  %72 = load i64, ptr %8, align 8
  %73 = sub i64 %72, %71
  store i64 %73, ptr %8, align 8
  call void @llvm.lifetime.end.p0(i64 8, ptr %11) #10
  br label %74

74:                                               ; preds = %61, %41, %36, %18
  call void @llvm.lifetime.end.p0(i64 8, ptr %10) #10
  br label %75

75:                                               ; preds = %74, %4
  br label %76

76:                                               ; preds = %92, %75
  %77 = load i64, ptr %8, align 8
  %78 = icmp ugt i64 %77, 0
  br i1 %78, label %79, label %135

79:                                               ; preds = %76
  call void @llvm.lifetime.start.p0(i64 4, ptr %12) #10
  %80 = load ptr, ptr %9, align 8
  %81 = getelementptr inbounds nuw %struct.libpq_source, ptr %80, i32 0, i32 2
  %82 = load i32, ptr %81, align 8
  %83 = icmp eq i32 %82, 1000
  br i1 %83, label %84, label %86

84:                                               ; preds = %79
  %85 = load ptr, ptr %9, align 8
  call void @process_queued_fetch_requests(ptr noundef %85)
  br label %86

86:                                               ; preds = %84, %79
  %87 = load i64, ptr %8, align 8
  %88 = icmp ult i64 %87, 1048576
  br i1 %88, label %89, label %91

89:                                               ; preds = %86
  %90 = load i64, ptr %8, align 8
  br label %92

91:                                               ; preds = %86
  br label %92

92:                                               ; preds = %91, %89
  %93 = phi i64 [ %90, %89 ], [ 1048576, %91 ]
  %94 = trunc i64 %93 to i32
  store i32 %94, ptr %12, align 4
  %95 = load ptr, ptr %6, align 8
  %96 = load ptr, ptr %9, align 8
  %97 = getelementptr inbounds nuw %struct.libpq_source, ptr %96, i32 0, i32 3
  %98 = load ptr, ptr %9, align 8
  %99 = getelementptr inbounds nuw %struct.libpq_source, ptr %98, i32 0, i32 2
  %100 = load i32, ptr %99, align 8
  %101 = sext i32 %100 to i64
  %102 = getelementptr inbounds [1000 x %struct.fetch_range_request], ptr %97, i64 0, i64 %101
  %103 = getelementptr inbounds nuw %struct.fetch_range_request, ptr %102, i32 0, i32 0
  store ptr %95, ptr %103, align 8
  %104 = load i64, ptr %7, align 8
  %105 = load ptr, ptr %9, align 8
  %106 = getelementptr inbounds nuw %struct.libpq_source, ptr %105, i32 0, i32 3
  %107 = load ptr, ptr %9, align 8
  %108 = getelementptr inbounds nuw %struct.libpq_source, ptr %107, i32 0, i32 2
  %109 = load i32, ptr %108, align 8
  %110 = sext i32 %109 to i64
  %111 = getelementptr inbounds [1000 x %struct.fetch_range_request], ptr %106, i64 0, i64 %110
  %112 = getelementptr inbounds nuw %struct.fetch_range_request, ptr %111, i32 0, i32 1
  store i64 %104, ptr %112, align 8
  %113 = load i32, ptr %12, align 4
  %114 = sext i32 %113 to i64
  %115 = load ptr, ptr %9, align 8
  %116 = getelementptr inbounds nuw %struct.libpq_source, ptr %115, i32 0, i32 3
  %117 = load ptr, ptr %9, align 8
  %118 = getelementptr inbounds nuw %struct.libpq_source, ptr %117, i32 0, i32 2
  %119 = load i32, ptr %118, align 8
  %120 = sext i32 %119 to i64
  %121 = getelementptr inbounds [1000 x %struct.fetch_range_request], ptr %116, i64 0, i64 %120
  %122 = getelementptr inbounds nuw %struct.fetch_range_request, ptr %121, i32 0, i32 2
  store i64 %114, ptr %122, align 8
  %123 = load ptr, ptr %9, align 8
  %124 = getelementptr inbounds nuw %struct.libpq_source, ptr %123, i32 0, i32 2
  %125 = load i32, ptr %124, align 8
  %126 = add i32 %125, 1
  store i32 %126, ptr %124, align 8
  %127 = load i32, ptr %12, align 4
  %128 = sext i32 %127 to i64
  %129 = load i64, ptr %7, align 8
  %130 = add i64 %129, %128
  store i64 %130, ptr %7, align 8
  %131 = load i32, ptr %12, align 4
  %132 = sext i32 %131 to i64
  %133 = load i64, ptr %8, align 8
  %134 = sub i64 %133, %132
  store i64 %134, ptr %8, align 8
  call void @llvm.lifetime.end.p0(i64 4, ptr %12) #10
  br label %76, !llvm.loop !8

135:                                              ; preds = %76
  call void @llvm.lifetime.end.p0(i64 8, ptr %9) #10
  ret void
}