; Function Attrs: nounwind uwtable
define internal void @libpq_queue_fetch_range(ptr noundef %0, ptr noundef %1, i64 noundef %2, i64 noundef %3) #0 {
  %5 = getelementptr inbounds nuw i8, ptr %0, i64 64
  %6 = load i32, ptr %5, align 8
  %7 = icmp sgt i32 %6, 0
  br i1 %7, label %8, label %28

8:                                                ; preds = %4
  %9 = getelementptr inbounds nuw i8, ptr %0, i64 72
  %10 = add nsw i32 %6, -1
  %11 = zext nneg i32 %10 to i64
  %12 = getelementptr inbounds nuw [1000 x %struct.fetch_range_request], ptr %9, i64 0, i64 %11
  %13 = getelementptr inbounds nuw i8, ptr %12, i64 8
  %14 = load i64, ptr %13, align 8
  %15 = getelementptr inbounds nuw i8, ptr %12, i64 16
  %16 = load i64, ptr %15, align 8
  %17 = add i64 %16, %14
  %18 = icmp eq i64 %17, %2
  %19 = icmp ult i64 %16, 1048576
  %or.cond = and i1 %19, %18
  br i1 %or.cond, label %20, label %28

20:                                               ; preds = %8
  %21 = load ptr, ptr %12, align 8
  %22 = icmp eq ptr %21, %1
  br i1 %22, label %23, label %28

23:                                               ; preds = %20
  %24 = sub nuw nsw i64 1048576, %16
  %. = tail call i64 @llvm.umin.i64(i64 %3, i64 %24)
  %25 = add nuw nsw i64 %., %16
  store i64 %25, ptr %15, align 8
  %26 = add i64 %., %2
  %27 = sub i64 %3, %.
  br label %28

28:                                               ; preds = %8, %20, %23, %4
  %.038 = phi i64 [ %3, %4 ], [ %27, %23 ], [ %3, %20 ], [ %3, %8 ]
  %.0 = phi i64 [ %2, %4 ], [ %26, %23 ], [ %2, %20 ], [ %2, %8 ]
  %.not48 = icmp eq i64 %.038, 0
  br i1 %.not48, label %._crit_edge, label %.lr.ph

.lr.ph:                                           ; preds = %28
  %29 = getelementptr inbounds nuw i8, ptr %0, i64 72
  br label %30

30:                                               ; preds = %.lr.ph, %34
  %31 = phi i32 [ %6, %.lr.ph ], [ %43, %34 ]
  %.250 = phi i64 [ %.0, %.lr.ph ], [ %44, %34 ]
  %.24049 = phi i64 [ %.038, %.lr.ph ], [ %45, %34 ]
  %32 = icmp eq i32 %31, 1000
  br i1 %32, label %33, label %34

33:                                               ; preds = %30
  tail call fastcc void @process_queued_fetch_requests(ptr noundef nonnull %0)
  %.pre = load i32, ptr %5, align 8
  br label %34

34:                                               ; preds = %33, %30
  %35 = phi i32 [ %.pre, %33 ], [ %31, %30 ]
  %36 = tail call i64 @llvm.umin.i64(i64 %.24049, i64 1048576)
  %37 = sext i32 %35 to i64
  %38 = getelementptr inbounds [1000 x %struct.fetch_range_request], ptr %29, i64 0, i64 %37
  store ptr %1, ptr %38, align 8
  %.idx = mul nsw i64 %37, 24
  %39 = getelementptr i8, ptr %29, i64 %.idx
  %40 = getelementptr i8, ptr %39, i64 8
  store i64 %.250, ptr %40, align 8
  %41 = getelementptr i8, ptr %39, i64 16
  store i64 %36, ptr %41, align 8
  %42 = load i32, ptr %5, align 8
  %43 = add i32 %42, 1
  store i32 %43, ptr %5, align 8
  %44 = add i64 %.250, %36
  %45 = sub i64 %.24049, %36
  %.not = icmp eq i64 %45, 0
  br i1 %.not, label %._crit_edge, label %30, !llvm.loop !7

._crit_edge:                                      ; preds = %34, %28
  ret void
}